; ModuleID = '56/141.c'
source_filename = "56/141.c"
target datalayout = "e-m:e-p270:32:32-p271:32:32-p272:64:64-i64:64-f80:128-n8:16:32:64-S128"
target triple = "x86_64-pc-linux-gnu"

@.str = private unnamed_addr constant [3 x i8] c"%d\00", align 1

; Function Attrs: noinline nounwind uwtable
define dso_local i32 @main() #0 {
  %1 = alloca i32, align 4
  %2 = alloca i32, align 4
  %3 = alloca i32, align 4
  %4 = alloca i32, align 4
  %5 = alloca i32, align 4
  %6 = alloca i32, align 4
  %7 = alloca [5 x i32], align 16
  store i32 0, i32* %1, align 4
  %8 = call i32 (i8*, ...) @__isoc99_scanf(i8* getelementptr inbounds ([3 x i8], [3 x i8]* @.str, i64 0, i64 0), i32* %2)
  store i32 0, i32* %3, align 4
  %9 = load i32, i32* %2, align 4
  store i32 %9, i32* %4, align 4
  br label %10

10:                                               ; preds = %16, %0
  %11 = load i32, i32* %4, align 4
  %12 = icmp sgt i32 %11, 0
  br i1 %12, label %13, label %19

13:                                               ; preds = %10
  %14 = load i32, i32* %4, align 4
  %15 = sdiv i32 %14, 10
  store i32 %15, i32* %4, align 4
  br label %16

16:                                               ; preds = %13
  %17 = load i32, i32* %3, align 4
  %18 = add nsw i32 %17, 1
  store i32 %18, i32* %3, align 4
  br label %10

19:                                               ; preds = %10
  %20 = load i32, i32* %3, align 4
  store i32 %20, i32* %5, align 4
  br label %21

21:                                               ; preds = %49, %19
  %22 = load i32, i32* %3, align 4
  %23 = icmp sgt i32 %22, 0
  br i1 %23, label %24, label %52

24:                                               ; preds = %21
  %25 = load i32, i32* %2, align 4
  %26 = load i32, i32* %3, align 4
  %27 = sub nsw i32 %26, 1
  %28 = sitofp i32 %27 to double
  %29 = call double @pow(double 1.000000e+01, double %28) #3
  %30 = fptosi double %29 to i32
  %31 = sdiv i32 %25, %30
  %32 = load i32, i32* %3, align 4
  %33 = sub nsw i32 %32, 1
  %34 = sext i32 %33 to i64
  %35 = getelementptr inbounds [5 x i32], [5 x i32]* %7, i64 0, i64 %34
  store i32 %31, i32* %35, align 4
  %36 = load i32, i32* %3, align 4
  %37 = sub nsw i32 %36, 1
  %38 = sext i32 %37 to i64
  %39 = getelementptr inbounds [5 x i32], [5 x i32]* %7, i64 0, i64 %38
  %40 = load i32, i32* %39, align 4
  %41 = load i32, i32* %3, align 4
  %42 = sub nsw i32 %41, 1
  %43 = sitofp i32 %42 to double
  %44 = call double @pow(double 1.000000e+01, double %43) #3
  %45 = fptosi double %44 to i32
  %46 = mul nsw i32 %40, %45
  %47 = load i32, i32* %2, align 4
  %48 = sub nsw i32 %47, %46
  store i32 %48, i32* %2, align 4
  br label %49

49:                                               ; preds = %24
  %50 = load i32, i32* %3, align 4
  %51 = add nsw i32 %50, -1
  store i32 %51, i32* %3, align 4
  br label %21

52:                                               ; preds = %21
  store i32 0, i32* %6, align 4
  br label %53

53:                                               ; preds = %63, %52
  %54 = load i32, i32* %6, align 4
  %55 = load i32, i32* %5, align 4
  %56 = icmp slt i32 %54, %55
  br i1 %56, label %57, label %66

57:                                               ; preds = %53
  %58 = load i32, i32* %6, align 4
  %59 = sext i32 %58 to i64
  %60 = getelementptr inbounds [5 x i32], [5 x i32]* %7, i64 0, i64 %59
  %61 = load i32, i32* %60, align 4
  %62 = call i32 (i8*, ...) @printf(i8* getelementptr inbounds ([3 x i8], [3 x i8]* @.str, i64 0, i64 0), i32 %61)
  br label %63

63:                                               ; preds = %57
  %64 = load i32, i32* %6, align 4
  %65 = add nsw i32 %64, 1
  store i32 %65, i32* %6, align 4
  br label %53

66:                                               ; preds = %53
  ret i32 0
}

declare dso_local i32 @__isoc99_scanf(i8*, ...) #1

; Function Attrs: nounwind
declare dso_local double @pow(double, double) #2

declare dso_local i32 @printf(i8*, ...) #1


!llvm.module.flags = !{!0}
!llvm.ident = !{!1}

!0 = !{i32 1, !"wchar_size", i32 4}
!1 = !{!"clang version 10.0.0-4ubuntu1 "}
