; ModuleID = 'source-C-CXX/55/141.c'
source_filename = "source-C-CXX/55/141.c"
target datalayout = "e-m:e-p270:32:32-p271:32:32-p272:64:64-i64:64-f80:128-n8:16:32:64-S128"
target triple = "x86_64-pc-linux-gnu"

@.str = private unnamed_addr constant [3 x i8] c"%d\00", align 1

; Function Attrs: nofree nounwind sspstrong uwtable
define dso_local i32 @main() local_unnamed_addr #0 {
  %1 = alloca i32, align 4
  %2 = alloca [5 x i32], align 16
  %3 = bitcast i32* %1 to i8*
  call void @llvm.lifetime.start.p0i8(i64 4, i8* nonnull %3) #4
  %4 = bitcast [5 x i32]* %2 to i8*
  call void @llvm.lifetime.start.p0i8(i64 20, i8* nonnull %4) #4
  %5 = call i32 (i8*, ...) @__isoc99_scanf(i8* getelementptr inbounds ([3 x i8], [3 x i8]* @.str, i64 0, i64 0), i32* nonnull %1)
  %6 = load i32, i32* %1, align 4, !tbaa !5
  %7 = icmp sgt i32 %6, 0
  br i1 %7, label %10, label %43

8:                                                ; preds = %10
  %9 = zext i32 %14 to i64
  br label %18

10:                                               ; preds = %0, %10
  %11 = phi i32 [ %14, %10 ], [ 0, %0 ]
  %12 = phi i32 [ %13, %10 ], [ %6, %0 ]
  %13 = udiv i32 %12, 10
  %14 = add nuw nsw i32 %11, 1
  %15 = icmp ult i32 %12, 10
  br i1 %15, label %8, label %10, !llvm.loop !9

16:                                               ; preds = %18
  %17 = zext i32 %14 to i64
  br label %36

18:                                               ; preds = %8, %18
  %19 = phi i32 [ %6, %8 ], [ %33, %18 ]
  %20 = phi i64 [ %9, %8 ], [ %35, %18 ]
  %21 = phi i32 [ %14, %8 ], [ %22, %18 ]
  %22 = add nsw i32 %21, -1
  %23 = sitofp i32 %22 to double
  %24 = call double @pow(double 1.000000e+01, double %23) #4
  %25 = fptosi double %24 to i32
  %26 = sdiv i32 %19, %25
  %27 = zext i32 %22 to i64
  %28 = getelementptr inbounds [5 x i32], [5 x i32]* %2, i64 0, i64 %27
  store i32 %26, i32* %28, align 4, !tbaa !5
  %29 = call double @pow(double 1.000000e+01, double %23) #4
  %30 = fptosi double %29 to i32
  %31 = mul nsw i32 %26, %30
  %32 = load i32, i32* %1, align 4, !tbaa !5
  %33 = sub nsw i32 %32, %31
  store i32 %33, i32* %1, align 4, !tbaa !5
  %34 = icmp sgt i64 %20, 1
  %35 = add nsw i64 %20, -1
  br i1 %34, label %18, label %16, !llvm.loop !11

36:                                               ; preds = %16, %36
  %37 = phi i64 [ 0, %16 ], [ %41, %36 ]
  %38 = getelementptr inbounds [5 x i32], [5 x i32]* %2, i64 0, i64 %37
  %39 = load i32, i32* %38, align 4, !tbaa !5
  %40 = call i32 (i8*, ...) @printf(i8* nonnull dereferenceable(1) getelementptr inbounds ([3 x i8], [3 x i8]* @.str, i64 0, i64 0), i32 %39)
  %41 = add nuw nsw i64 %37, 1
  %42 = icmp eq i64 %41, %17
  br i1 %42, label %43, label %36, !llvm.loop !12

43:                                               ; preds = %36, %0
  call void @llvm.lifetime.end.p0i8(i64 20, i8* nonnull %4) #4
  call void @llvm.lifetime.end.p0i8(i64 4, i8* nonnull %3) #4
  ret i32 0
}

; Function Attrs: argmemonly mustprogress nofree nosync nounwind willreturn
declare void @llvm.lifetime.start.p0i8(i64 immarg, i8* nocapture) #1

; Function Attrs: nofree nounwind
declare noundef i32 @__isoc99_scanf(i8* nocapture noundef readonly, ...) local_unnamed_addr #2

; Function Attrs: mustprogress nofree nounwind willreturn
declare double @pow(double, double) local_unnamed_addr #3

; Function Attrs: nofree nounwind
declare noundef i32 @printf(i8* nocapture noundef readonly, ...) local_unnamed_addr #2

; Function Attrs: argmemonly mustprogress nofree nosync nounwind willreturn
declare void @llvm.lifetime.end.p0i8(i64 immarg, i8* nocapture) #1


!llvm.module.flags = !{!0, !1, !2, !3}
!llvm.ident = !{!4}

!0 = !{i32 1, !"wchar_size", i32 4}
!1 = !{i32 7, !"PIC Level", i32 2}
!2 = !{i32 7, !"PIE Level", i32 2}
!3 = !{i32 7, !"uwtable", i32 1}
!4 = !{!"clang version 13.0.0"}
!5 = !{!6, !6, i64 0}
!6 = !{!"int", !7, i64 0}
!7 = !{!"omnipotent char", !8, i64 0}
!8 = !{!"Simple C/C++ TBAA"}
!9 = distinct !{!9, !10}
!10 = !{!"llvm.loop.mustprogress"}
!11 = distinct !{!11, !10}
!12 = distinct !{!12, !10}
